; Function Attrs: mustprogress uwtable
define hidden noundef ptr @_Z13pyopencv_fromIN2cv12TermCriteriaEEP7_objectRKT_(ptr nocapture noundef nonnull readonly align 8 dereferenceable(16) %0) local_unnamed_addr #3 {
  %2 = load i32, ptr %0, align 8
  %3 = getelementptr inbounds i8, ptr %0, i64 4
  %4 = load i32, ptr %3, align 4
  %5 = getelementptr inbounds i8, ptr %0, i64 8
  %6 = load double, ptr %5, align 8
  %7 = tail call ptr (ptr, ...) @Py_BuildValue(ptr noundef nonnull @.str.48, i32 noundef %2, i32 noundef %4, double noundef %6)
  ret ptr %7
}